; Function Attrs: mustprogress uwtable
define void @_ZNK10open_spiel11pathfinding16PathfindingState8ToStringB5cxx11Ev(ptr dead_on_unwind noalias nonnull writable sret(%"class.std::__cxx11::basic_string") align 8 %0, ptr nocapture noundef nonnull readonly align 8 dereferenceable(264) %1) unnamed_addr #3 align 2 personality ptr @__gxx_personality_v0 {
  %3 = alloca %"class.absl::debian2::AlphaNum", align 8
  %4 = alloca %"class.absl::debian2::AlphaNum", align 8
  %5 = alloca %"class.absl::debian2::AlphaNum", align 8
  %6 = alloca %"class.absl::debian2::AlphaNum", align 8
  tail call void @_ZNSt7__cxx1112basic_stringIcSt11char_traitsIcESaIcEEC1Ev(ptr noundef nonnull align 8 dereferenceable(32) %0) #29
  %7 = getelementptr inbounds nuw i8, ptr %1, i64 72
  %8 = load ptr, ptr %7, align 8
  %9 = load i32, ptr %8, align 8
  %10 = icmp sgt i32 %9, 0
  br i1 %10, label %.preheader.lr.ph, label %._crit_edge20

.preheader.lr.ph:                                 ; preds = %2
  %11 = getelementptr inbounds nuw i8, ptr %1, i64 120
  %12 = getelementptr inbounds nuw i8, ptr %4, i64 8
  %13 = getelementptr inbounds nuw i8, ptr %1, i64 28
  %14 = getelementptr inbounds nuw i8, ptr %5, i64 8
  %15 = getelementptr inbounds nuw i8, ptr %3, i64 16
  %16 = ptrtoint ptr %15 to i64
  %17 = getelementptr inbounds nuw i8, ptr %3, i64 8
  %18 = getelementptr inbounds nuw i8, ptr %6, i64 8
  br label %.preheader

.preheader:                                       ; preds = %.preheader.lr.ph, %50
  %19 = phi ptr [ %8, %.preheader.lr.ph ], [ %51, %50 ]
  %indvars.iv22 = phi i64 [ 0, %.preheader.lr.ph ], [ %indvars.iv.next23, %50 ]
  %20 = getelementptr inbounds nuw i8, ptr %19, i64 4
  %21 = load i32, ptr %20, align 4
  %22 = icmp sgt i32 %21, 0
  br i1 %22, label %.lr.ph, label %._crit_edge

.lr.ph:                                           ; preds = %.preheader, %44
  %indvars.iv = phi i64 [ %indvars.iv.next, %44 ], [ 0, %.preheader ]
  %23 = load ptr, ptr %11, align 8
  %24 = getelementptr inbounds %"class.std::vector.29", ptr %23, i64 %indvars.iv22
  %25 = load ptr, ptr %24, align 8
  %26 = getelementptr inbounds i32, ptr %25, i64 %indvars.iv
  %27 = load i32, ptr %26, align 4
  %28 = icmp sgt i32 %27, -1
  br i1 %28, label %29, label %41

29:                                               ; preds = %.lr.ph
  %30 = load i32, ptr %13, align 4
  %31 = icmp slt i32 %27, %30
  br i1 %31, label %32, label %.thread

32:                                               ; preds = %29
  %33 = invoke noundef ptr @_ZN4absl7debian216numbers_internal15FastIntToBufferEiPc(i32 noundef %27, ptr noundef nonnull %15)
          to label %.noexc unwind label %.loopexit

.noexc:                                           ; preds = %32
  %34 = ptrtoint ptr %33 to i64
  %35 = sub i64 %34, %16
  store ptr %15, ptr %3, align 8
  %36 = icmp sgt i64 %35, -1
  br i1 %36, label %38, label %37

37:                                               ; preds = %.noexc
  call void @llvm.trap()
  unreachable

38:                                               ; preds = %.noexc
  store i64 %35, ptr %17, align 8
  br label %.invoke

.invoke:                                          ; preds = %.thread, %43, %38
  %39 = phi ptr [ %3, %38 ], [ %4, %43 ], [ %5, %.thread ]
  invoke void @_ZN4absl7debian29StrAppendEPNSt7__cxx1112basic_stringIcSt11char_traitsIcESaIcEEERKNS0_8AlphaNumE(ptr noundef nonnull %0, ptr noundef nonnull align 8 dereferenceable(48) %39)
          to label %44 unwind label %.loopexit

.loopexit:                                        ; preds = %.invoke, %32
  %lpad.loopexit = landingpad { ptr, i32 }
          cleanup
  br label %40

.loopexit.split-lp:                               ; preds = %._crit_edge
  %lpad.loopexit.split-lp = landingpad { ptr, i32 }
          cleanup
  br label %40

40:                                               ; preds = %.loopexit.split-lp, %.loopexit
  %lpad.phi = phi { ptr, i32 } [ %lpad.loopexit, %.loopexit ], [ %lpad.loopexit.split-lp, %.loopexit.split-lp ]
  call void @_ZNSt7__cxx1112basic_stringIcSt11char_traitsIcESaIcEED1Ev(ptr noundef nonnull align 8 dereferenceable(32) %0) #29
  resume { ptr, i32 } %lpad.phi

41:                                               ; preds = %.lr.ph
  %42 = icmp eq i32 %27, -2
  br i1 %42, label %43, label %.thread

43:                                               ; preds = %41
  store ptr @.str.32, ptr %4, align 8
  store i64 1, ptr %12, align 8
  br label %.invoke

.thread:                                          ; preds = %29, %41
  store ptr @.str.33, ptr %5, align 8
  store i64 1, ptr %14, align 8
  br label %.invoke

44:                                               ; preds = %.invoke
  %indvars.iv.next = add nuw nsw i64 %indvars.iv, 1
  %45 = load ptr, ptr %7, align 8
  %46 = getelementptr inbounds nuw i8, ptr %45, i64 4
  %47 = load i32, ptr %46, align 4
  %48 = sext i32 %47 to i64
  %49 = icmp slt i64 %indvars.iv.next, %48
  br i1 %49, label %.lr.ph, label %._crit_edge, !llvm.loop !34

._crit_edge:                                      ; preds = %44, %.preheader
  store ptr @.str.34, ptr %6, align 8
  store i64 1, ptr %18, align 8
  invoke void @_ZN4absl7debian29StrAppendEPNSt7__cxx1112basic_stringIcSt11char_traitsIcESaIcEEERKNS0_8AlphaNumE(ptr noundef nonnull %0, ptr noundef nonnull align 8 dereferenceable(48) %6)
          to label %50 unwind label %.loopexit.split-lp

50:                                               ; preds = %._crit_edge
  %indvars.iv.next23 = add nuw nsw i64 %indvars.iv22, 1
  %51 = load ptr, ptr %7, align 8
  %52 = load i32, ptr %51, align 8
  %53 = sext i32 %52 to i64
  %54 = icmp slt i64 %indvars.iv.next23, %53
  br i1 %54, label %.preheader, label %._crit_edge20, !llvm.loop !35

._crit_edge20:                                    ; preds = %50, %2
  ret void
}